target datalayout = "e-m:e-p270:32:32-p271:32:32-p272:64:64-i64:64-i128:128-f80:128-n8:16:32:64-S128"
target triple = "x86_64-pc-linux-gnu"

@.str.2 = private unnamed_addr constant [5 x i8] c"%02d\00", align 1
@.str.57 = private unnamed_addr constant [3 x i8] c"-0\00", align 1

; Function Attrs: nounwind uwtable
define internal ptr @_conv(i32 noundef %0, ptr noundef %1, ptr noundef %2, ptr noundef %3) #0 {
  %5 = alloca i32, align 4
  %6 = alloca ptr, align 8
  %7 = alloca ptr, align 8
  %8 = alloca ptr, align 8
  %9 = alloca [12 x i8], align 1
  store i32 %0, ptr %5, align 4
  store ptr %1, ptr %6, align 8
  store ptr %2, ptr %7, align 8
  store ptr %3, ptr %8, align 8
  call void @llvm.lifetime.start.p0(i64 12, ptr %9) #4
  %10 = getelementptr inbounds [12 x i8], ptr %9, i64 0, i64 0
  %11 = load ptr, ptr %6, align 8
  %12 = load i32, ptr %5, align 4
  %13 = call i32 (ptr, ptr, ...) @pg_sprintf(ptr noundef %10, ptr noundef %11, i32 noundef %12)
  %14 = getelementptr inbounds [12 x i8], ptr %9, i64 0, i64 0
  %15 = load ptr, ptr %7, align 8
  %16 = load ptr, ptr %8, align 8
  %17 = call ptr @_add(ptr noundef %14, ptr noundef %15, ptr noundef %16)
  call void @llvm.lifetime.end.p0(i64 12, ptr %9) #4
  ret ptr %17
}

; Function Attrs: nounwind uwtable
define internal ptr @_add(ptr noundef %0, ptr noundef %1, ptr noundef %2) #0 {
  %4 = alloca ptr, align 8
  %5 = alloca ptr, align 8
  %6 = alloca ptr, align 8
  store ptr %0, ptr %4, align 8
  store ptr %1, ptr %5, align 8
  store ptr %2, ptr %6, align 8
  br label %7

7:                                                ; preds = %20, %3
  %8 = load ptr, ptr %5, align 8
  %9 = load ptr, ptr %6, align 8
  %10 = icmp ult ptr %8, %9
  br i1 %10, label %11, label %18

11:                                               ; preds = %7
  %12 = load ptr, ptr %4, align 8
  %13 = getelementptr inbounds nuw i8, ptr %12, i32 1
  store ptr %13, ptr %4, align 8
  %14 = load i8, ptr %12, align 1
  %15 = load ptr, ptr %5, align 8
  store i8 %14, ptr %15, align 1
  %16 = sext i8 %14 to i32
  %17 = icmp ne i32 %16, 0
  br label %18

18:                                               ; preds = %11, %7
  %19 = phi i1 [ false, %7 ], [ %17, %11 ]
  br i1 %19, label %20, label %23

20:                                               ; preds = %18
  %21 = load ptr, ptr %5, align 8
  %22 = getelementptr inbounds nuw i8, ptr %21, i32 1
  store ptr %22, ptr %5, align 8
  br label %7, !llvm.loop !8

23:                                               ; preds = %18
  %24 = load ptr, ptr %5, align 8
  ret ptr %24
}

; Function Attrs: nounwind uwtable
define internal ptr @_yconv(i32 noundef %0, i32 noundef %1, i1 noundef zeroext %2, i1 noundef zeroext %3, ptr noundef %4, ptr noundef %5) #0 {
  %7 = alloca i32, align 4
  %8 = alloca i32, align 4
  %9 = alloca i8, align 1
  %10 = alloca i8, align 1
  %11 = alloca ptr, align 8
  %12 = alloca ptr, align 8
  %13 = alloca i32, align 4
  %14 = alloca i32, align 4
  store i32 %0, ptr %7, align 4
  store i32 %1, ptr %8, align 4
  %15 = zext i1 %2 to i8
  store i8 %15, ptr %9, align 1
  %16 = zext i1 %3 to i8
  store i8 %16, ptr %10, align 1
  store ptr %4, ptr %11, align 8
  store ptr %5, ptr %12, align 8
  call void @llvm.lifetime.start.p0(i64 4, ptr %13) #4
  call void @llvm.lifetime.start.p0(i64 4, ptr %14) #4
  %17 = load i32, ptr %7, align 4
  %18 = srem i32 %17, 100
  %19 = load i32, ptr %8, align 4
  %20 = srem i32 %19, 100
  %21 = add i32 %18, %20
  store i32 %21, ptr %14, align 4
  %22 = load i32, ptr %7, align 4
  %23 = sdiv i32 %22, 100
  %24 = load i32, ptr %8, align 4
  %25 = sdiv i32 %24, 100
  %26 = add i32 %23, %25
  %27 = load i32, ptr %14, align 4
  %28 = sdiv i32 %27, 100
  %29 = add i32 %26, %28
  store i32 %29, ptr %13, align 4
  %30 = load i32, ptr %14, align 4
  %31 = srem i32 %30, 100
  store i32 %31, ptr %14, align 4
  %32 = load i32, ptr %14, align 4
  %33 = icmp slt i32 %32, 0
  br i1 %33, label %34, label %42

34:                                               ; preds = %6
  %35 = load i32, ptr %13, align 4
  %36 = icmp sgt i32 %35, 0
  br i1 %36, label %37, label %42

37:                                               ; preds = %34
  %38 = load i32, ptr %14, align 4
  %39 = add i32 %38, 100
  store i32 %39, ptr %14, align 4
  %40 = load i32, ptr %13, align 4
  %41 = add i32 %40, -1
  store i32 %41, ptr %13, align 4
  br label %54

42:                                               ; preds = %34, %6
  %43 = load i32, ptr %13, align 4
  %44 = icmp slt i32 %43, 0
  br i1 %44, label %45, label %53

45:                                               ; preds = %42
  %46 = load i32, ptr %14, align 4
  %47 = icmp sgt i32 %46, 0
  br i1 %47, label %48, label %53

48:                                               ; preds = %45
  %49 = load i32, ptr %14, align 4
  %50 = sub i32 %49, 100
  store i32 %50, ptr %14, align 4
  %51 = load i32, ptr %13, align 4
  %52 = add i32 %51, 1
  store i32 %52, ptr %13, align 4
  br label %53

53:                                               ; preds = %48, %45, %42
  br label %54

54:                                               ; preds = %53, %37
  %55 = load i8, ptr %9, align 1, !range !4, !noundef !5
  %56 = trunc i8 %55 to i1
  br i1 %56, label %57, label %73

57:                                               ; preds = %54
  %58 = load i32, ptr %13, align 4
  %59 = icmp eq i32 %58, 0
  br i1 %59, label %60, label %67

60:                                               ; preds = %57
  %61 = load i32, ptr %14, align 4
  %62 = icmp slt i32 %61, 0
  br i1 %62, label %63, label %67

63:                                               ; preds = %60
  %64 = load ptr, ptr %11, align 8
  %65 = load ptr, ptr %12, align 8
  %66 = call ptr @_add(ptr noundef @.str.57, ptr noundef %64, ptr noundef %65)
  store ptr %66, ptr %11, align 8
  br label %72

67:                                               ; preds = %60, %57
  %68 = load i32, ptr %13, align 4
  %69 = load ptr, ptr %11, align 8
  %70 = load ptr, ptr %12, align 8
  %71 = call ptr @_conv(i32 noundef %68, ptr noundef @.str.2, ptr noundef %69, ptr noundef %70)
  store ptr %71, ptr %11, align 8
  br label %72

72:                                               ; preds = %67, %63
  br label %73

73:                                               ; preds = %72, %54
  %74 = load i8, ptr %10, align 1, !range !4, !noundef !5
  %75 = trunc i8 %74 to i1
  br i1 %75, label %76, label %89

76:                                               ; preds = %73
  %77 = load i32, ptr %14, align 4
  %78 = icmp slt i32 %77, 0
  br i1 %78, label %79, label %82

79:                                               ; preds = %76
  %80 = load i32, ptr %14, align 4
  %81 = sub i32 0, %80
  br label %84

82:                                               ; preds = %76
  %83 = load i32, ptr %14, align 4
  br label %84

84:                                               ; preds = %82, %79
  %85 = phi i32 [ %81, %79 ], [ %83, %82 ]
  %86 = load ptr, ptr %11, align 8
  %87 = load ptr, ptr %12, align 8
  %88 = call ptr @_conv(i32 noundef %85, ptr noundef @.str.2, ptr noundef %86, ptr noundef %87)
  store ptr %88, ptr %11, align 8
  br label %89

89:                                               ; preds = %84, %73
  %90 = load ptr, ptr %11, align 8
  call void @llvm.lifetime.end.p0(i64 4, ptr %14) #4
  call void @llvm.lifetime.end.p0(i64 4, ptr %13) #4
  ret ptr %90
}