; Function Attrs: nounwind uwtable
define internal fastcc ptr @_yconv(i32 noundef %0, i32 noundef %1, i1 noundef zeroext %2, i1 noundef zeroext %3, ptr noundef %4, ptr noundef %5) unnamed_addr #0 {
  %7 = alloca [12 x i8], align 1
  %8 = alloca [12 x i8], align 1
  %9 = srem i32 %0, 100
  %10 = srem i32 %1, 100
  %11 = add nsw i32 %10, %9
  %12 = sdiv i32 %0, 100
  %13 = sdiv i32 %1, 100
  %14 = add nsw i32 %13, %12
  %.lhs.trunc = trunc nsw i32 %11 to i16
  %15 = sdiv i16 %.lhs.trunc, 100
  %.sext = sext i16 %15 to i32
  %16 = add nsw i32 %14, %.sext
  %17 = srem i16 %.lhs.trunc, 100
  %.sext49 = sext i16 %17 to i32
  %18 = icmp slt i16 %17, 0
  %19 = icmp sgt i32 %16, 0
  %or.cond = select i1 %18, i1 %19, i1 false
  br i1 %or.cond, label %20, label %23

20:                                               ; preds = %6
  %21 = add nsw i32 %.sext49, 100
  %22 = add nsw i32 %16, -1
  br label %29

23:                                               ; preds = %6
  %24 = icmp slt i32 %16, 0
  %25 = icmp sgt i16 %17, 0
  %or.cond3 = and i1 %25, %24
  br i1 %or.cond3, label %26, label %29

26:                                               ; preds = %23
  %27 = add nuw nsw i32 %.sext49, -100
  %28 = add nsw i32 %16, 1
  br label %29

29:                                               ; preds = %23, %26, %20
  %.033 = phi i32 [ %22, %20 ], [ %28, %26 ], [ %16, %23 ]
  %.0 = phi i32 [ %21, %20 ], [ %27, %26 ], [ %.sext49, %23 ]
  br i1 %2, label %30, label %_add.exit

30:                                               ; preds = %29
  %31 = icmp eq i32 %.033, 0
  %32 = icmp slt i32 %.0, 0
  %or.cond5 = select i1 %31, i1 %32, i1 false
  br i1 %or.cond5, label %33, label %41

33:                                               ; preds = %30
  %34 = icmp ult ptr %4, %5
  br i1 %34, label %.lr.ph.preheader.i, label %_add.exit

.lr.ph.preheader.i:                               ; preds = %33
  %35 = ptrtoint ptr %5 to i64
  %36 = ptrtoint ptr %4 to i64
  %37 = sub i64 %35, %36
  %scevgep.i = getelementptr i8, ptr %4, i64 %37
  br label %.lr.ph.i

.lr.ph.i:                                         ; preds = %39, %.lr.ph.preheader.i
  %.08.i.idx = phi i64 [ %.08.i.add, %39 ], [ 0, %.lr.ph.preheader.i ]
  %.067.i = phi ptr [ %40, %39 ], [ %4, %.lr.ph.preheader.i ]
  %.08.i.ptr = getelementptr inbounds nuw i8, ptr @.str.57, i64 %.08.i.idx
  %38 = load i8, ptr %.08.i.ptr, align 1
  store i8 %38, ptr %.067.i, align 1
  %exitcond = icmp eq i64 %.08.i.idx, 2
  br i1 %exitcond, label %_add.exit, label %39

39:                                               ; preds = %.lr.ph.i
  %.08.i.add = add nuw nsw i64 %.08.i.idx, 1
  %40 = getelementptr inbounds nuw i8, ptr %.067.i, i64 1
  %exitcond.not.i = icmp eq ptr %40, %5
  br i1 %exitcond.not.i, label %_add.exit, label %.lr.ph.i, !llvm.loop !4

41:                                               ; preds = %30
  call void @llvm.lifetime.start.p0(i64 12, ptr nonnull %8) #6
  %42 = call i32 (ptr, ptr, ...) @pg_sprintf(ptr noundef nonnull %8, ptr noundef nonnull @.str.2, i32 noundef %.033) #6
  %43 = icmp ult ptr %4, %5
  br i1 %43, label %.lr.ph.preheader.i.i, label %_conv.exit

.lr.ph.preheader.i.i:                             ; preds = %41
  %44 = ptrtoint ptr %5 to i64
  %45 = ptrtoint ptr %4 to i64
  %46 = sub i64 %44, %45
  %scevgep.i.i = getelementptr i8, ptr %4, i64 %46
  br label %.lr.ph.i.i

.lr.ph.i.i:                                       ; preds = %48, %.lr.ph.preheader.i.i
  %.08.i.i = phi ptr [ %49, %48 ], [ %8, %.lr.ph.preheader.i.i ]
  %.067.i.i = phi ptr [ %50, %48 ], [ %4, %.lr.ph.preheader.i.i ]
  %47 = load i8, ptr %.08.i.i, align 1
  store i8 %47, ptr %.067.i.i, align 1
  %.not.i.i = icmp eq i8 %47, 0
  br i1 %.not.i.i, label %_conv.exit, label %48

48:                                               ; preds = %.lr.ph.i.i
  %49 = getelementptr inbounds nuw i8, ptr %.08.i.i, i64 1
  %50 = getelementptr inbounds nuw i8, ptr %.067.i.i, i64 1
  %exitcond.not.i.i = icmp eq ptr %50, %5
  br i1 %exitcond.not.i.i, label %_conv.exit, label %.lr.ph.i.i, !llvm.loop !4

_conv.exit:                                       ; preds = %.lr.ph.i.i, %48, %41
  %.06.lcssa.i.i = phi ptr [ %4, %41 ], [ %scevgep.i.i, %48 ], [ %.067.i.i, %.lr.ph.i.i ]
  call void @llvm.lifetime.end.p0(i64 12, ptr nonnull %8) #6
  br label %_add.exit

_add.exit:                                        ; preds = %39, %.lr.ph.i, %33, %_conv.exit, %29
  %.034 = phi ptr [ %.06.lcssa.i.i, %_conv.exit ], [ %4, %29 ], [ %4, %33 ], [ %.067.i, %.lr.ph.i ], [ %scevgep.i, %39 ]
  br i1 %3, label %51, label %62

51:                                               ; preds = %_add.exit
  %52 = call i32 @llvm.abs.i32(i32 %.0, i1 true)
  call void @llvm.lifetime.start.p0(i64 12, ptr nonnull %7) #6
  %53 = call i32 (ptr, ptr, ...) @pg_sprintf(ptr noundef nonnull %7, ptr noundef nonnull @.str.2, i32 noundef %52) #6
  %54 = icmp ult ptr %.034, %5
  br i1 %54, label %.lr.ph.preheader.i.i40, label %_conv.exit47

.lr.ph.preheader.i.i40:                           ; preds = %51
  %55 = ptrtoint ptr %5 to i64
  %56 = ptrtoint ptr %.034 to i64
  %57 = sub i64 %55, %56
  %scevgep.i.i41 = getelementptr i8, ptr %.034, i64 %57
  br label %.lr.ph.i.i42

.lr.ph.i.i42:                                     ; preds = %59, %.lr.ph.preheader.i.i40
  %.08.i.i43 = phi ptr [ %60, %59 ], [ %7, %.lr.ph.preheader.i.i40 ]
  %.067.i.i44 = phi ptr [ %61, %59 ], [ %.034, %.lr.ph.preheader.i.i40 ]
  %58 = load i8, ptr %.08.i.i43, align 1
  store i8 %58, ptr %.067.i.i44, align 1
  %.not.i.i45 = icmp eq i8 %58, 0
  br i1 %.not.i.i45, label %_conv.exit47, label %59

59:                                               ; preds = %.lr.ph.i.i42
  %60 = getelementptr inbounds nuw i8, ptr %.08.i.i43, i64 1
  %61 = getelementptr inbounds nuw i8, ptr %.067.i.i44, i64 1
  %exitcond.not.i.i46 = icmp eq ptr %61, %5
  br i1 %exitcond.not.i.i46, label %_conv.exit47, label %.lr.ph.i.i42, !llvm.loop !4

_conv.exit47:                                     ; preds = %.lr.ph.i.i42, %59, %51
  %.06.lcssa.i.i39 = phi ptr [ %.034, %51 ], [ %scevgep.i.i41, %59 ], [ %.067.i.i44, %.lr.ph.i.i42 ]
  call void @llvm.lifetime.end.p0(i64 12, ptr nonnull %7) #6
  br label %62

62:                                               ; preds = %_conv.exit47, %_add.exit
  %.1 = phi ptr [ %.06.lcssa.i.i39, %_conv.exit47 ], [ %.034, %_add.exit ]
  ret ptr %.1
}